target datalayout = "e-m:e-p270:32:32-p271:32:32-p272:64:64-i64:64-i128:128-f80:128-n8:16:32:64-S128"
target triple = "x86_64-pc-linux-gnu"

%struct.lean_object = type { i32, i32 }
%"struct.lean::mpz_object" = type { %struct.lean_object, %"class.lean::mpz" }
%"class.lean::mpz" = type { [1 x %struct.__mpz_struct] }
%struct.__mpz_struct = type { i32, i32, ptr }

; Function Attrs: inlinehint mustprogress nounwind uwtable
define linkonce_odr hidden noundef ptr @_ZN4lean6to_mpzEP11lean_object(ptr noundef %0) #9 comdat {
  %2 = alloca ptr, align 8
  store ptr %0, ptr %2, align 8, !tbaa !3
  %3 = load ptr, ptr %2, align 8, !tbaa !3
  ret ptr %3
}

; Function Attrs: inlinehint mustprogress nounwind uwtable
define internal noundef i64 @_ZL10lean_unboxP11lean_object(ptr noundef %0) #9 {
  %2 = alloca ptr, align 8
  store ptr %0, ptr %2, align 8, !tbaa !3
  %3 = load ptr, ptr %2, align 8, !tbaa !3
  %4 = ptrtoint ptr %3 to i64
  %5 = lshr i64 %4, 1
  ret i64 %5
}

; Function Attrs: mustprogress uwtable
define linkonce_odr hidden void @_ZN4lean3mpz4edivERKS0_i(ptr dead_on_unwind noalias writable sret(%"class.lean::mpz") align 8 %0, ptr noundef nonnull align 8 dereferenceable(16) %1, i32 noundef %2) #0 comdat align 2 personality ptr @__gxx_personality_v0 {
  %4 = alloca ptr, align 8
  %5 = alloca ptr, align 8
  %6 = alloca i32, align 4
  %7 = alloca %"class.lean::mpz", align 8
  %8 = alloca ptr, align 8
  %9 = alloca i32, align 4
  store ptr %0, ptr %4, align 8
  store ptr %1, ptr %5, align 8, !tbaa !115
  store i32 %2, ptr %6, align 4, !tbaa !19
  %10 = load ptr, ptr %5, align 8, !tbaa !115
  call void @llvm.lifetime.start.p0(i64 16, ptr %7) #23
  %11 = load i32, ptr %6, align 4, !tbaa !19
  call void @_ZN4lean3mpzC1Ei(ptr noundef nonnull align 8 dereferenceable(16) %7, i32 noundef %11)
  invoke void @_ZN4lean3mpz4edivERKS0_S2_(ptr dead_on_unwind writable sret(%"class.lean::mpz") align 8 %0, ptr noundef nonnull align 8 dereferenceable(16) %10, ptr noundef nonnull align 8 dereferenceable(16) %7)
          to label %12 unwind label %13

12:                                               ; preds = %3
  call void @_ZN4lean3mpzD1Ev(ptr noundef nonnull align 8 dereferenceable(16) %7) #23
  call void @llvm.lifetime.end.p0(i64 16, ptr %7) #23
  ret void

13:                                               ; preds = %3
  %14 = landingpad { ptr, i32 }
          cleanup
  %15 = extractvalue { ptr, i32 } %14, 0
  store ptr %15, ptr %8, align 8
  %16 = extractvalue { ptr, i32 } %14, 1
  store i32 %16, ptr %9, align 4
  call void @_ZN4lean3mpzD1Ev(ptr noundef nonnull align 8 dereferenceable(16) %7) #23
  call void @llvm.lifetime.end.p0(i64 16, ptr %7) #23
  br label %17

17:                                               ; preds = %13
  %18 = load ptr, ptr %8, align 8
  %19 = load i32, ptr %9, align 4
  %20 = insertvalue { ptr, i32 } poison, ptr %18, 0
  %21 = insertvalue { ptr, i32 } %20, i32 %19, 1
  resume { ptr, i32 } %21
}

; Function Attrs: mustprogress uwtable
define linkonce_odr hidden void @_ZN4lean3mpz4edivEiRKS0_(ptr dead_on_unwind noalias writable sret(%"class.lean::mpz") align 8 %0, i32 noundef %1, ptr noundef nonnull align 8 dereferenceable(16) %2) #0 comdat align 2 personality ptr @__gxx_personality_v0 {
  %4 = alloca ptr, align 8
  %5 = alloca i32, align 4
  %6 = alloca ptr, align 8
  %7 = alloca %"class.lean::mpz", align 8
  %8 = alloca ptr, align 8
  %9 = alloca i32, align 4
  store ptr %0, ptr %4, align 8
  store i32 %1, ptr %5, align 4, !tbaa !19
  store ptr %2, ptr %6, align 8, !tbaa !115
  call void @llvm.lifetime.start.p0(i64 16, ptr %7) #23
  %10 = load i32, ptr %5, align 4, !tbaa !19
  call void @_ZN4lean3mpzC1Ei(ptr noundef nonnull align 8 dereferenceable(16) %7, i32 noundef %10)
  %11 = load ptr, ptr %6, align 8, !tbaa !115
  invoke void @_ZN4lean3mpz4edivERKS0_S2_(ptr dead_on_unwind writable sret(%"class.lean::mpz") align 8 %0, ptr noundef nonnull align 8 dereferenceable(16) %7, ptr noundef nonnull align 8 dereferenceable(16) %11)
          to label %12 unwind label %13

12:                                               ; preds = %3
  call void @_ZN4lean3mpzD1Ev(ptr noundef nonnull align 8 dereferenceable(16) %7) #23
  call void @llvm.lifetime.end.p0(i64 16, ptr %7) #23
  ret void

13:                                               ; preds = %3
  %14 = landingpad { ptr, i32 }
          cleanup
  %15 = extractvalue { ptr, i32 } %14, 0
  store ptr %15, ptr %8, align 8
  %16 = extractvalue { ptr, i32 } %14, 1
  store i32 %16, ptr %9, align 4
  call void @_ZN4lean3mpzD1Ev(ptr noundef nonnull align 8 dereferenceable(16) %7) #23
  call void @llvm.lifetime.end.p0(i64 16, ptr %7) #23
  br label %17

17:                                               ; preds = %13
  %18 = load ptr, ptr %8, align 8
  %19 = load i32, ptr %9, align 4
  %20 = insertvalue { ptr, i32 } poison, ptr %18, 0
  %21 = insertvalue { ptr, i32 } %20, i32 %19, 1
  resume { ptr, i32 } %21
}

; Function Attrs: inlinehint mustprogress nounwind uwtable
define linkonce_odr hidden noundef nonnull align 8 dereferenceable(16) ptr @_ZN4lean9mpz_valueEP11lean_object(ptr noundef %0) #9 comdat {
  %2 = alloca ptr, align 8
  store ptr %0, ptr %2, align 8, !tbaa !3
  %3 = load ptr, ptr %2, align 8, !tbaa !3
  %4 = call noundef ptr @_ZN4lean6to_mpzEP11lean_object(ptr noundef %3)
  %5 = getelementptr inbounds nuw %"struct.lean::mpz_object", ptr %4, i32 0, i32 1
  ret ptr %5
}

; Function Attrs: inlinehint mustprogress nounwind uwtable
define internal noundef i32 @_ZL18lean_scalar_to_intP11lean_object(ptr noundef %0) #9 {
  %2 = alloca ptr, align 8
  store ptr %0, ptr %2, align 8, !tbaa !3
  %3 = load ptr, ptr %2, align 8, !tbaa !3
  %4 = call noundef i64 @_ZL10lean_unboxP11lean_object(ptr noundef %3)
  %5 = trunc i64 %4 to i32
  ret i32 %5
}

; Function Attrs: alwaysinline mustprogress nounwind uwtable
define internal noundef zeroext i1 @_ZL14lean_is_scalarP11lean_object(ptr noundef %0) #11 {
  %2 = alloca ptr, align 8
  store ptr %0, ptr %2, align 8, !tbaa !3
  %3 = load ptr, ptr %2, align 8, !tbaa !3
  %4 = ptrtoint ptr %3 to i64
  %5 = and i64 %4, 1
  %6 = icmp eq i64 %5, 1
  ret i1 %6
}

; Function Attrs: mustprogress uwtable
define ptr @lean_int_big_ediv(ptr noundef %0, ptr noundef %1) #0 personality ptr @__gxx_personality_v0 {
  %3 = alloca ptr, align 8
  %4 = alloca ptr, align 8
  %5 = alloca ptr, align 8
  %6 = alloca %"class.lean::mpz", align 8
  %7 = alloca ptr, align 8
  %8 = alloca i32, align 4
  %9 = alloca i32, align 4
  %10 = alloca i32, align 4
  %11 = alloca %"class.lean::mpz", align 8
  %12 = alloca %"class.lean::mpz", align 8
  store ptr %0, ptr %4, align 8, !tbaa !3
  store ptr %1, ptr %5, align 8, !tbaa !3
  %13 = load ptr, ptr %4, align 8, !tbaa !3
  %14 = call noundef zeroext i1 @_ZL14lean_is_scalarP11lean_object(ptr noundef %13)
  br i1 %14, label %15, label %26

15:                                               ; preds = %2
  call void @llvm.lifetime.start.p0(i64 16, ptr %6) #23
  %16 = load ptr, ptr %4, align 8, !tbaa !3
  %17 = call noundef i32 @_ZL18lean_scalar_to_intP11lean_object(ptr noundef %16)
  %18 = load ptr, ptr %5, align 8, !tbaa !3
  %19 = call noundef nonnull align 8 dereferenceable(16) ptr @_ZN4lean9mpz_valueEP11lean_object(ptr noundef %18)
  call void @_ZN4lean3mpz4edivEiRKS0_(ptr dead_on_unwind writable sret(%"class.lean::mpz") align 8 %6, i32 noundef %17, ptr noundef nonnull align 8 dereferenceable(16) %19)
  %20 = invoke noundef ptr @_ZN4leanL10mpz_to_intERKNS_3mpzE(ptr noundef nonnull align 8 dereferenceable(16) %6)
          to label %21 unwind label %22

21:                                               ; preds = %15
  store ptr %20, ptr %3, align 8
  call void @_ZN4lean3mpzD1Ev(ptr noundef nonnull align 8 dereferenceable(16) %6) #23
  call void @llvm.lifetime.end.p0(i64 16, ptr %6) #23
  br label %58

22:                                               ; preds = %15
  %23 = landingpad { ptr, i32 }
          cleanup
  %24 = extractvalue { ptr, i32 } %23, 0
  store ptr %24, ptr %7, align 8
  %25 = extractvalue { ptr, i32 } %23, 1
  store i32 %25, ptr %8, align 4
  call void @_ZN4lean3mpzD1Ev(ptr noundef nonnull align 8 dereferenceable(16) %6) #23
  call void @llvm.lifetime.end.p0(i64 16, ptr %6) #23
  br label %60

26:                                               ; preds = %2
  %27 = load ptr, ptr %5, align 8, !tbaa !3
  %28 = call noundef zeroext i1 @_ZL14lean_is_scalarP11lean_object(ptr noundef %27)
  br i1 %28, label %29, label %47

29:                                               ; preds = %26
  call void @llvm.lifetime.start.p0(i64 4, ptr %9) #23
  %30 = load ptr, ptr %5, align 8, !tbaa !3
  %31 = call noundef i32 @_ZL18lean_scalar_to_intP11lean_object(ptr noundef %30)
  store i32 %31, ptr %9, align 4, !tbaa !19
  %32 = load i32, ptr %9, align 4, !tbaa !19
  %33 = icmp eq i32 %32, 0
  br i1 %33, label %34, label %36

34:                                               ; preds = %29
  %35 = load ptr, ptr %5, align 8, !tbaa !3
  store ptr %35, ptr %3, align 8
  store i32 1, ptr %10, align 4
  br label %46

36:                                               ; preds = %29
  call void @llvm.lifetime.start.p0(i64 16, ptr %11) #23
  %37 = load ptr, ptr %4, align 8, !tbaa !3
  %38 = call noundef nonnull align 8 dereferenceable(16) ptr @_ZN4lean9mpz_valueEP11lean_object(ptr noundef %37)
  %39 = load i32, ptr %9, align 4, !tbaa !19
  call void @_ZN4lean3mpz4edivERKS0_i(ptr dead_on_unwind writable sret(%"class.lean::mpz") align 8 %11, ptr noundef nonnull align 8 dereferenceable(16) %38, i32 noundef %39)
  %40 = invoke noundef ptr @_ZN4leanL10mpz_to_intERKNS_3mpzE(ptr noundef nonnull align 8 dereferenceable(16) %11)
          to label %41 unwind label %42

41:                                               ; preds = %36
  store ptr %40, ptr %3, align 8
  call void @_ZN4lean3mpzD1Ev(ptr noundef nonnull align 8 dereferenceable(16) %11) #23
  call void @llvm.lifetime.end.p0(i64 16, ptr %11) #23
  store i32 1, ptr %10, align 4
  br label %46

42:                                               ; preds = %36
  %43 = landingpad { ptr, i32 }
          cleanup
  %44 = extractvalue { ptr, i32 } %43, 0
  store ptr %44, ptr %7, align 8
  %45 = extractvalue { ptr, i32 } %43, 1
  store i32 %45, ptr %8, align 4
  call void @_ZN4lean3mpzD1Ev(ptr noundef nonnull align 8 dereferenceable(16) %11) #23
  call void @llvm.lifetime.end.p0(i64 16, ptr %11) #23
  call void @llvm.lifetime.end.p0(i64 4, ptr %9) #23
  br label %60

46:                                               ; preds = %41, %34
  call void @llvm.lifetime.end.p0(i64 4, ptr %9) #23
  br label %58

47:                                               ; preds = %26
  call void @llvm.lifetime.start.p0(i64 16, ptr %12) #23
  %48 = load ptr, ptr %4, align 8, !tbaa !3
  %49 = call noundef nonnull align 8 dereferenceable(16) ptr @_ZN4lean9mpz_valueEP11lean_object(ptr noundef %48)
  %50 = load ptr, ptr %5, align 8, !tbaa !3
  %51 = call noundef nonnull align 8 dereferenceable(16) ptr @_ZN4lean9mpz_valueEP11lean_object(ptr noundef %50)
  call void @_ZN4lean3mpz4edivERKS0_S2_(ptr dead_on_unwind writable sret(%"class.lean::mpz") align 8 %12, ptr noundef nonnull align 8 dereferenceable(16) %49, ptr noundef nonnull align 8 dereferenceable(16) %51)
  %52 = invoke noundef ptr @_ZN4leanL10mpz_to_intERKNS_3mpzE(ptr noundef nonnull align 8 dereferenceable(16) %12)
          to label %53 unwind label %54

53:                                               ; preds = %47
  store ptr %52, ptr %3, align 8
  call void @_ZN4lean3mpzD1Ev(ptr noundef nonnull align 8 dereferenceable(16) %12) #23
  call void @llvm.lifetime.end.p0(i64 16, ptr %12) #23
  br label %58

54:                                               ; preds = %47
  %55 = landingpad { ptr, i32 }
          cleanup
  %56 = extractvalue { ptr, i32 } %55, 0
  store ptr %56, ptr %7, align 8
  %57 = extractvalue { ptr, i32 } %55, 1
  store i32 %57, ptr %8, align 4
  call void @_ZN4lean3mpzD1Ev(ptr noundef nonnull align 8 dereferenceable(16) %12) #23
  call void @llvm.lifetime.end.p0(i64 16, ptr %12) #23
  br label %60

58:                                               ; preds = %53, %46, %21
  %59 = load ptr, ptr %3, align 8
  ret ptr %59

60:                                               ; preds = %54, %42, %22
  %61 = load ptr, ptr %7, align 8
  %62 = load i32, ptr %8, align 4
  %63 = insertvalue { ptr, i32 } poison, ptr %61, 0
  %64 = insertvalue { ptr, i32 } %63, i32 %62, 1
  resume { ptr, i32 } %64
}