; Function Attrs: mustprogress uwtable
define noundef ptr @lean_int_big_ediv(ptr noundef %0, ptr noundef %1) local_unnamed_addr #0 personality ptr @__gxx_personality_v0 {
  %3 = alloca %"class.lean::mpz", align 8
  %4 = alloca %"class.lean::mpz", align 8
  %5 = alloca %"class.lean::mpz", align 8
  %6 = alloca %"class.lean::mpz", align 8
  %7 = alloca %"class.lean::mpz", align 8
  %8 = ptrtoint ptr %0 to i64
  %9 = and i64 %8, 1
  %.not = icmp eq i64 %9, 0
  br i1 %.not, label %20, label %10

10:                                               ; preds = %2
  call void @llvm.lifetime.start.p0(i64 16, ptr nonnull %5) #40
  %11 = lshr i64 %8, 1
  %12 = trunc i64 %11 to i32
  %13 = getelementptr inbounds nuw i8, ptr %1, i64 8
  call void @llvm.lifetime.start.p0(i64 16, ptr nonnull %4) #40, !noalias !143
  call void @_ZN4lean3mpzC1Ei(ptr noundef nonnull align 8 dereferenceable(16) %4, i32 noundef %12), !noalias !143
  invoke void @_ZN4lean3mpz4edivERKS0_S2_(ptr dead_on_unwind nonnull writable sret(%"class.lean::mpz") align 8 %5, ptr noundef nonnull align 8 dereferenceable(16) %4, ptr noundef nonnull align 8 dereferenceable(16) %13)
          to label %_ZN4lean3mpz4edivEiRKS0_.exit unwind label %14

common.resume:                                    ; preds = %18, %33, %40, %29, %14
  %common.resume.op = phi { ptr, i32 } [ %15, %14 ], [ %30, %29 ], [ %19, %18 ], [ %34, %33 ], [ %41, %40 ]
  resume { ptr, i32 } %common.resume.op

14:                                               ; preds = %10
  %15 = landingpad { ptr, i32 }
          cleanup
  call void @_ZN4lean3mpzD1Ev(ptr noundef nonnull align 8 dereferenceable(16) %4) #40
  call void @llvm.lifetime.end.p0(i64 16, ptr nonnull %4) #40, !noalias !143
  br label %common.resume

_ZN4lean3mpz4edivEiRKS0_.exit:                    ; preds = %10
  call void @_ZN4lean3mpzD1Ev(ptr noundef nonnull align 8 dereferenceable(16) %4) #40
  call void @llvm.lifetime.end.p0(i64 16, ptr nonnull %4) #40, !noalias !143
  %16 = invoke fastcc noundef ptr @_ZN4leanL10mpz_to_intERKNS_3mpzE(ptr noundef nonnull align 8 dereferenceable(16) %5)
          to label %17 unwind label %18

17:                                               ; preds = %_ZN4lean3mpz4edivEiRKS0_.exit
  call void @_ZN4lean3mpzD1Ev(ptr noundef nonnull align 8 dereferenceable(16) %5) #40
  call void @llvm.lifetime.end.p0(i64 16, ptr nonnull %5) #40
  br label %42

18:                                               ; preds = %_ZN4lean3mpz4edivEiRKS0_.exit
  %19 = landingpad { ptr, i32 }
          cleanup
  call void @_ZN4lean3mpzD1Ev(ptr noundef nonnull align 8 dereferenceable(16) %5) #40
  call void @llvm.lifetime.end.p0(i64 16, ptr nonnull %5) #40
  br label %common.resume

20:                                               ; preds = %2
  %21 = ptrtoint ptr %1 to i64
  %22 = and i64 %21, 1
  %.not17 = icmp eq i64 %22, 0
  br i1 %.not17, label %35, label %23

23:                                               ; preds = %20
  %24 = lshr i64 %21, 1
  %25 = trunc i64 %24 to i32
  %26 = icmp eq i32 %25, 0
  br i1 %26, label %42, label %27

27:                                               ; preds = %23
  call void @llvm.lifetime.start.p0(i64 16, ptr nonnull %6) #40
  %28 = getelementptr inbounds nuw i8, ptr %0, i64 8
  call void @llvm.lifetime.start.p0(i64 16, ptr nonnull %3) #40, !noalias !146
  call void @_ZN4lean3mpzC1Ei(ptr noundef nonnull align 8 dereferenceable(16) %3, i32 noundef %25), !noalias !146
  invoke void @_ZN4lean3mpz4edivERKS0_S2_(ptr dead_on_unwind nonnull writable sret(%"class.lean::mpz") align 8 %6, ptr noundef nonnull align 8 dereferenceable(16) %28, ptr noundef nonnull align 8 dereferenceable(16) %3)
          to label %_ZN4lean3mpz4edivERKS0_i.exit unwind label %29

29:                                               ; preds = %27
  %30 = landingpad { ptr, i32 }
          cleanup
  call void @_ZN4lean3mpzD1Ev(ptr noundef nonnull align 8 dereferenceable(16) %3) #40
  call void @llvm.lifetime.end.p0(i64 16, ptr nonnull %3) #40, !noalias !146
  br label %common.resume

_ZN4lean3mpz4edivERKS0_i.exit:                    ; preds = %27
  call void @_ZN4lean3mpzD1Ev(ptr noundef nonnull align 8 dereferenceable(16) %3) #40
  call void @llvm.lifetime.end.p0(i64 16, ptr nonnull %3) #40, !noalias !146
  %31 = invoke fastcc noundef ptr @_ZN4leanL10mpz_to_intERKNS_3mpzE(ptr noundef nonnull align 8 dereferenceable(16) %6)
          to label %32 unwind label %33

32:                                               ; preds = %_ZN4lean3mpz4edivERKS0_i.exit
  call void @_ZN4lean3mpzD1Ev(ptr noundef nonnull align 8 dereferenceable(16) %6) #40
  call void @llvm.lifetime.end.p0(i64 16, ptr nonnull %6) #40
  br label %42

33:                                               ; preds = %_ZN4lean3mpz4edivERKS0_i.exit
  %34 = landingpad { ptr, i32 }
          cleanup
  call void @_ZN4lean3mpzD1Ev(ptr noundef nonnull align 8 dereferenceable(16) %6) #40
  call void @llvm.lifetime.end.p0(i64 16, ptr nonnull %6) #40
  br label %common.resume

35:                                               ; preds = %20
  call void @llvm.lifetime.start.p0(i64 16, ptr nonnull %7) #40
  %36 = getelementptr inbounds nuw i8, ptr %0, i64 8
  %37 = getelementptr inbounds nuw i8, ptr %1, i64 8
  call void @_ZN4lean3mpz4edivERKS0_S2_(ptr dead_on_unwind nonnull writable sret(%"class.lean::mpz") align 8 %7, ptr noundef nonnull align 8 dereferenceable(16) %36, ptr noundef nonnull align 8 dereferenceable(16) %37)
  %38 = invoke fastcc noundef ptr @_ZN4leanL10mpz_to_intERKNS_3mpzE(ptr noundef nonnull align 8 dereferenceable(16) %7)
          to label %39 unwind label %40

39:                                               ; preds = %35
  call void @_ZN4lean3mpzD1Ev(ptr noundef nonnull align 8 dereferenceable(16) %7) #40
  call void @llvm.lifetime.end.p0(i64 16, ptr nonnull %7) #40
  br label %42

40:                                               ; preds = %35
  %41 = landingpad { ptr, i32 }
          cleanup
  call void @_ZN4lean3mpzD1Ev(ptr noundef nonnull align 8 dereferenceable(16) %7) #40
  call void @llvm.lifetime.end.p0(i64 16, ptr nonnull %7) #40
  br label %common.resume

42:                                               ; preds = %32, %23, %39, %17
  %.0 = phi ptr [ %16, %17 ], [ %38, %39 ], [ %31, %32 ], [ %1, %23 ]
  ret ptr %.0
}